target datalayout = "e-m:e-p270:32:32-p271:32:32-p272:64:64-i64:64-i128:128-f80:128-n8:16:32:64-S128"
target triple = "x86_64-pc-linux-gnu"

; Function Attrs: mustprogress nounwind uwtable
define void @_ZN10open_spiel16nine_mens_morris14FromMoveActionElPiS1_(i64 noundef %0, ptr noundef %1, ptr noundef %2) #6 {
  %4 = alloca i64, align 8
  %5 = alloca ptr, align 8
  %6 = alloca ptr, align 8
  store i64 %0, ptr %4, align 8
  store ptr %1, ptr %5, align 8
  store ptr %2, ptr %6, align 8
  %7 = load i64, ptr %4, align 8
  %8 = sub nsw i64 %7, 24
  store i64 %8, ptr %4, align 8
  %9 = load i64, ptr %4, align 8
  %10 = sdiv i64 %9, 24
  %11 = trunc i64 %10 to i32
  %12 = load ptr, ptr %5, align 8
  store i32 %11, ptr %12, align 4
  %13 = load i64, ptr %4, align 8
  %14 = srem i64 %13, 24
  %15 = trunc i64 %14 to i32
  %16 = load ptr, ptr %6, align 8
  store i32 %15, ptr %16, align 4
  ret void
}