; Function Attrs: mustprogress nofree norecurse nosync nounwind willreturn memory(argmem: write) uwtable
define void @_ZN10open_spiel16nine_mens_morris14FromMoveActionElPiS1_(i64 noundef %0, ptr nocapture noundef writeonly %1, ptr nocapture noundef writeonly %2) local_unnamed_addr #8 {
  %4 = add nsw i64 %0, -24
  %5 = sdiv i64 %4, 24
  %6 = trunc i64 %5 to i32
  store i32 %6, ptr %1, align 4
  %7 = srem i64 %4, 24
  %8 = trunc nsw i64 %7 to i32
  store i32 %8, ptr %2, align 4
  ret void
}